#include <math.h>
#include <stdio.h>
#include <stdlib.h>
#include <string.h>

int main()
{
    struct student
    {
    char a[20];
    char b[20];
    char c[20];
    char d[20];
    char e[20];
    char f[20];
    struct student *pNext;
    };
    struct student *pHeader = (struct student *)malloc(sizeof(struct student));
    pHeader->pNext=NULL;
    struct student *p;
    while(1)
    {
    p=(struct student *)malloc(sizeof(struct student));
    p->pNext=pHeader->pNext;
    pHeader->pNext=p;
    scanf("%s",p->a);
    if(p->a[0]=='e') break;
    scanf("%s %s %s %s %s",p->b,p->c,p->d,p->e,p->f);
    }
    p=pHeader->pNext->pNext;
    while(1)
    {
    if(p==NULL) break;
    printf("%s %s %s %s %s %s\n",p->a,p->b,p->c,p->d,p->e,p->f);
    p=p->pNext;
    }
}
