; ModuleID = 'source-C-CXX/30/1882.c'
source_filename = "source-C-CXX/30/1882.c"
target datalayout = "e-m:e-p270:32:32-p271:32:32-p272:64:64-i64:64-f80:128-n8:16:32:64-S128"
target triple = "x86_64-pc-linux-gnu"

%struct.student = type { [20 x i8], [20 x i8], [20 x i8], [20 x i8], [20 x i8], [20 x i8], %struct.student* }

@.str = private unnamed_addr constant [3 x i8] c"%s\00", align 1
@.str.1 = private unnamed_addr constant [15 x i8] c"%s %s %s %s %s\00", align 1
@.str.2 = private unnamed_addr constant [19 x i8] c"%s %s %s %s %s %s\0A\00", align 1

; Function Attrs: nofree nounwind sspstrong uwtable
define dso_local i32 @main() local_unnamed_addr #0 {
  %1 = tail call noalias align 16 dereferenceable_or_null(128) i8* @malloc(i64 128) #3
  %2 = bitcast i8* %1 to %struct.student*
  %3 = getelementptr inbounds %struct.student, %struct.student* %2, i64 0, i32 6
  store %struct.student* null, %struct.student** %3, align 8, !tbaa !5
  %4 = getelementptr inbounds %struct.student, %struct.student* %2, i64 0, i32 0, i64 0
  %5 = tail call i32 (i8*, ...) @__isoc99_scanf(i8* getelementptr inbounds ([3 x i8], [3 x i8]* @.str, i64 0, i64 0), i8* %4)
  %6 = load i8, i8* %4, align 16, !tbaa !10
  %7 = icmp eq i8 %6, 101
  br i1 %7, label %25, label %8

8:                                                ; preds = %0, %8
  %9 = phi %struct.student* [ %17, %8 ], [ %2, %0 ]
  %10 = getelementptr inbounds %struct.student, %struct.student* %9, i64 0, i32 1, i64 0
  %11 = getelementptr inbounds %struct.student, %struct.student* %9, i64 0, i32 2, i64 0
  %12 = getelementptr inbounds %struct.student, %struct.student* %9, i64 0, i32 3, i64 0
  %13 = getelementptr inbounds %struct.student, %struct.student* %9, i64 0, i32 4, i64 0
  %14 = getelementptr inbounds %struct.student, %struct.student* %9, i64 0, i32 5, i64 0
  %15 = tail call i32 (i8*, ...) @__isoc99_scanf(i8* getelementptr inbounds ([15 x i8], [15 x i8]* @.str.1, i64 0, i64 0), i8* nonnull %10, i8* nonnull %11, i8* nonnull %12, i8* nonnull %13, i8* nonnull %14)
  %16 = tail call noalias align 16 dereferenceable_or_null(128) i8* @malloc(i64 128) #3
  %17 = bitcast i8* %16 to %struct.student*
  %18 = getelementptr inbounds %struct.student, %struct.student* %17, i64 0, i32 6
  store %struct.student* %9, %struct.student** %18, align 8, !tbaa !5
  %19 = getelementptr inbounds %struct.student, %struct.student* %17, i64 0, i32 0, i64 0
  %20 = tail call i32 (i8*, ...) @__isoc99_scanf(i8* getelementptr inbounds ([3 x i8], [3 x i8]* @.str, i64 0, i64 0), i8* %19)
  %21 = load i8, i8* %19, align 16, !tbaa !10
  %22 = icmp eq i8 %21, 101
  br i1 %22, label %23, label %8

23:                                               ; preds = %8
  %24 = bitcast i8* %16 to %struct.student*
  br label %25

25:                                               ; preds = %23, %0
  %26 = phi %struct.student* [ %2, %0 ], [ %24, %23 ]
  %27 = getelementptr inbounds %struct.student, %struct.student* %26, i64 0, i32 6
  %28 = load %struct.student*, %struct.student** %27, align 8, !tbaa !5
  %29 = icmp eq %struct.student* %28, null
  br i1 %29, label %42, label %30

30:                                               ; preds = %25, %30
  %31 = phi %struct.student* [ %40, %30 ], [ %28, %25 ]
  %32 = getelementptr inbounds %struct.student, %struct.student* %31, i64 0, i32 0, i64 0
  %33 = getelementptr inbounds %struct.student, %struct.student* %31, i64 0, i32 1, i64 0
  %34 = getelementptr inbounds %struct.student, %struct.student* %31, i64 0, i32 2, i64 0
  %35 = getelementptr inbounds %struct.student, %struct.student* %31, i64 0, i32 3, i64 0
  %36 = getelementptr inbounds %struct.student, %struct.student* %31, i64 0, i32 4, i64 0
  %37 = getelementptr inbounds %struct.student, %struct.student* %31, i64 0, i32 5, i64 0
  %38 = tail call i32 (i8*, ...) @printf(i8* nonnull dereferenceable(1) getelementptr inbounds ([19 x i8], [19 x i8]* @.str.2, i64 0, i64 0), i8* nonnull %32, i8* nonnull %33, i8* nonnull %34, i8* nonnull %35, i8* nonnull %36, i8* nonnull %37)
  %39 = getelementptr inbounds %struct.student, %struct.student* %31, i64 0, i32 6
  %40 = load %struct.student*, %struct.student** %39, align 8, !tbaa !5
  %41 = icmp eq %struct.student* %40, null
  br i1 %41, label %42, label %30

42:                                               ; preds = %30, %25
  ret i32 0
}

; Function Attrs: inaccessiblememonly mustprogress nofree nounwind willreturn
declare noalias noundef align 16 i8* @malloc(i64 noundef) local_unnamed_addr #1

; Function Attrs: nofree nounwind
declare noundef i32 @__isoc99_scanf(i8* nocapture noundef readonly, ...) local_unnamed_addr #2

; Function Attrs: nofree nounwind
declare noundef i32 @printf(i8* nocapture noundef readonly, ...) local_unnamed_addr #2


!llvm.module.flags = !{!0, !1, !2, !3}
!llvm.ident = !{!4}

!0 = !{i32 1, !"wchar_size", i32 4}
!1 = !{i32 7, !"PIC Level", i32 2}
!2 = !{i32 7, !"PIE Level", i32 2}
!3 = !{i32 7, !"uwtable", i32 1}
!4 = !{!"clang version 13.0.0"}
!5 = !{!6, !9, i64 120}
!6 = !{!"student", !7, i64 0, !7, i64 20, !7, i64 40, !7, i64 60, !7, i64 80, !7, i64 100, !9, i64 120}
!7 = !{!"omnipotent char", !8, i64 0}
!8 = !{!"Simple C/C++ TBAA"}
!9 = !{!"any pointer", !7, i64 0}
!10 = !{!7, !7, i64 0}
